target datalayout = "e-m:e-p270:32:32-p271:32:32-p272:64:64-i64:64-i128:128-f80:128-n8:16:32:64-S128"
target triple = "x86_64-pc-linux-gnu"

%"class.std::__cxx11::basic_string" = type { %"struct.std::__cxx11::basic_string<char>::_Alloc_hider", i64, %union.anon }
%"struct.std::__cxx11::basic_string<char>::_Alloc_hider" = type { ptr }
%union.anon = type { i64, [8 x i8] }
%class.cmStateSnapshot = type { ptr, %"class.cmLinkedTree<cmStateDetail::SnapshotDataType>::iterator" }
%"class.cmLinkedTree<cmStateDetail::SnapshotDataType>::iterator" = type { ptr, i64 }
%"struct.cmStateDetail::SnapshotDataType" = type { %"class.cmLinkedTree<cmStateDetail::SnapshotDataType>::iterator", %"class.cmLinkedTree<cmStateDetail::SnapshotDataType>::iterator", %"class.cmLinkedTree<cmStateDetail::PolicyStackEntry>::iterator", %"class.cmLinkedTree<cmStateDetail::PolicyStackEntry>::iterator", %"class.cmLinkedTree<cmStateDetail::PolicyStackEntry>::iterator", i32, i8, %"class.cmLinkedTree<std::__cxx11::basic_string<char>>::iterator", %"class.cmLinkedTree<cmStateDetail::BuildsystemDirectoryStateType>::iterator", %"class.cmLinkedTree<cmDefinitions>::iterator", %"class.cmLinkedTree<cmDefinitions>::iterator", %"class.cmLinkedTree<cmDefinitions>::iterator", i64, i64, i64, i64, i64 }
%"class.cmLinkedTree<cmStateDetail::PolicyStackEntry>::iterator" = type { ptr, i64 }
%"class.cmLinkedTree<std::__cxx11::basic_string<char>>::iterator" = type { ptr, i64 }
%"class.cmLinkedTree<cmStateDetail::BuildsystemDirectoryStateType>::iterator" = type { ptr, i64 }
%"class.cmLinkedTree<cmDefinitions>::iterator" = type { ptr, i64 }
%"class.std::vector.8" = type { %"struct.std::_Vector_base.9" }
%"struct.std::_Vector_base.9" = type { %"struct.std::_Vector_base<std::__cxx11::basic_string<char>, std::allocator<std::__cxx11::basic_string<char>>>::_Vector_impl" }
%"struct.std::_Vector_base<std::__cxx11::basic_string<char>, std::allocator<std::__cxx11::basic_string<char>>>::_Vector_impl" = type { %"struct.std::_Vector_base<std::__cxx11::basic_string<char>, std::allocator<std::__cxx11::basic_string<char>>>::_Vector_impl_data" }
%"struct.std::_Vector_base<std::__cxx11::basic_string<char>, std::allocator<std::__cxx11::basic_string<char>>>::_Vector_impl_data" = type { ptr, ptr, ptr }
%"class.std::vector.64" = type { %"struct.std::_Vector_base.65" }
%"struct.std::_Vector_base.65" = type { %"struct.std::_Vector_base<unsigned long, std::allocator<unsigned long>>::_Vector_impl" }
%"struct.std::_Vector_base<unsigned long, std::allocator<unsigned long>>::_Vector_impl" = type { %"struct.std::_Vector_base<unsigned long, std::allocator<unsigned long>>::_Vector_impl_data" }
%"struct.std::_Vector_base<unsigned long, std::allocator<unsigned long>>::_Vector_impl_data" = type { ptr, ptr, ptr }
%class.cmLinkedTree.69 = type { %"class.std::vector.8", %"class.std::vector.64" }
%class.cmLinkedTree.76 = type { %"class.std::vector.77", %"class.std::vector.64" }
%"class.std::vector.77" = type { %"struct.std::_Vector_base.78" }
%"struct.std::_Vector_base.78" = type { %"struct.std::_Vector_base<cmStateDetail::SnapshotDataType, std::allocator<cmStateDetail::SnapshotDataType>>::_Vector_impl" }
%"struct.std::_Vector_base<cmStateDetail::SnapshotDataType, std::allocator<cmStateDetail::SnapshotDataType>>::_Vector_impl" = type { %"struct.std::_Vector_base<cmStateDetail::SnapshotDataType, std::allocator<cmStateDetail::SnapshotDataType>>::_Vector_impl_data" }
%"struct.std::_Vector_base<cmStateDetail::SnapshotDataType, std::allocator<cmStateDetail::SnapshotDataType>>::_Vector_impl_data" = type { ptr, ptr, ptr }

; Function Attrs: mustprogress nounwind uwtable
define linkonce_odr dso_local noundef nonnull align 8 dereferenceable(32) ptr @_ZNSt6vectorINSt7__cxx1112basic_stringIcSt11char_traitsIcESaIcEEESaIS5_EEixEm(ptr noundef nonnull align 8 dereferenceable(24) %0, i64 noundef %1) #5 comdat align 2 {
  %3 = alloca ptr, align 8
  %4 = alloca i64, align 8
  store ptr %0, ptr %3, align 8
  store i64 %1, ptr %4, align 8
  %5 = load ptr, ptr %3, align 8
  %6 = getelementptr inbounds %"struct.std::_Vector_base.9", ptr %5, i32 0, i32 0
  %7 = getelementptr inbounds %"struct.std::_Vector_base<std::__cxx11::basic_string<char>, std::allocator<std::__cxx11::basic_string<char>>>::_Vector_impl_data", ptr %6, i32 0, i32 0
  %8 = load ptr, ptr %7, align 8
  %9 = load i64, ptr %4, align 8
  %10 = getelementptr inbounds %"class.std::__cxx11::basic_string", ptr %8, i64 %9
  ret ptr %10
}

; Function Attrs: mustprogress nounwind uwtable
define linkonce_odr dso_local noundef nonnull align 8 dereferenceable(208) ptr @_ZNSt6vectorIN13cmStateDetail16SnapshotDataTypeESaIS1_EEixEm(ptr noundef nonnull align 8 dereferenceable(24) %0, i64 noundef %1) #5 comdat align 2 {
  %3 = alloca ptr, align 8
  %4 = alloca i64, align 8
  store ptr %0, ptr %3, align 8
  store i64 %1, ptr %4, align 8
  %5 = load ptr, ptr %3, align 8
  %6 = getelementptr inbounds %"struct.std::_Vector_base.78", ptr %5, i32 0, i32 0
  %7 = getelementptr inbounds %"struct.std::_Vector_base<cmStateDetail::SnapshotDataType, std::allocator<cmStateDetail::SnapshotDataType>>::_Vector_impl_data", ptr %6, i32 0, i32 0
  %8 = load ptr, ptr %7, align 8
  %9 = load i64, ptr %4, align 8
  %10 = getelementptr inbounds %"struct.cmStateDetail::SnapshotDataType", ptr %8, i64 %9
  ret ptr %10
}

; Function Attrs: mustprogress nounwind uwtable
define linkonce_odr dso_local noundef nonnull align 8 dereferenceable(32) ptr @_ZN12cmLinkedTreeINSt7__cxx1112basic_stringIcSt11char_traitsIcESaIcEEEE12GetReferenceEm(ptr noundef nonnull align 8 dereferenceable(48) %0, i64 noundef %1) #5 comdat align 2 {
  %3 = alloca ptr, align 8
  %4 = alloca i64, align 8
  store ptr %0, ptr %3, align 8
  store i64 %1, ptr %4, align 8
  %5 = load ptr, ptr %3, align 8
  %6 = getelementptr inbounds %class.cmLinkedTree.69, ptr %5, i32 0, i32 0
  %7 = load i64, ptr %4, align 8
  %8 = call noundef nonnull align 8 dereferenceable(32) ptr @_ZNSt6vectorINSt7__cxx1112basic_stringIcSt11char_traitsIcESaIcEEESaIS5_EEixEm(ptr noundef nonnull align 8 dereferenceable(24) %6, i64 noundef %7) #3
  ret ptr %8
}

; Function Attrs: mustprogress nounwind uwtable
define linkonce_odr dso_local noundef ptr @_ZN12cmLinkedTreeIN13cmStateDetail16SnapshotDataTypeEE10GetPointerEm(ptr noundef nonnull align 8 dereferenceable(48) %0, i64 noundef %1) #5 comdat align 2 {
  %3 = alloca ptr, align 8
  %4 = alloca i64, align 8
  store ptr %0, ptr %3, align 8
  store i64 %1, ptr %4, align 8
  %5 = load ptr, ptr %3, align 8
  %6 = getelementptr inbounds %class.cmLinkedTree.76, ptr %5, i32 0, i32 0
  %7 = load i64, ptr %4, align 8
  %8 = call noundef nonnull align 8 dereferenceable(208) ptr @_ZNSt6vectorIN13cmStateDetail16SnapshotDataTypeESaIS1_EEixEm(ptr noundef nonnull align 8 dereferenceable(24) %6, i64 noundef %7) #3
  ret ptr %8
}

; Function Attrs: mustprogress uwtable
define linkonce_odr dso_local noundef nonnull align 8 dereferenceable(32) ptr @_ZN12cmLinkedTreeINSt7__cxx1112basic_stringIcSt11char_traitsIcESaIcEEEE8iteratordeEv(ptr noundef nonnull align 8 dereferenceable(16) %0) #4 comdat align 2 {
  %2 = alloca ptr, align 8
  store ptr %0, ptr %2, align 8
  %3 = load ptr, ptr %2, align 8
  %4 = getelementptr inbounds %"class.cmLinkedTree<std::__cxx11::basic_string<char>>::iterator", ptr %3, i32 0, i32 0
  %5 = load ptr, ptr %4, align 8
  %6 = getelementptr inbounds %"class.cmLinkedTree<std::__cxx11::basic_string<char>>::iterator", ptr %3, i32 0, i32 1
  %7 = load i64, ptr %6, align 8
  %8 = sub i64 %7, 1
  %9 = call noundef nonnull align 8 dereferenceable(32) ptr @_ZN12cmLinkedTreeINSt7__cxx1112basic_stringIcSt11char_traitsIcESaIcEEEE12GetReferenceEm(ptr noundef nonnull align 8 dereferenceable(48) %5, i64 noundef %8)
  ret ptr %9
}

; Function Attrs: mustprogress uwtable
define linkonce_odr dso_local noundef ptr @_ZN12cmLinkedTreeIN13cmStateDetail16SnapshotDataTypeEE8iteratorptEv(ptr noundef nonnull align 8 dereferenceable(16) %0) #4 comdat align 2 {
  %2 = alloca ptr, align 8
  store ptr %0, ptr %2, align 8
  %3 = load ptr, ptr %2, align 8
  %4 = getelementptr inbounds %"class.cmLinkedTree<cmStateDetail::SnapshotDataType>::iterator", ptr %3, i32 0, i32 0
  %5 = load ptr, ptr %4, align 8
  %6 = getelementptr inbounds %"class.cmLinkedTree<cmStateDetail::SnapshotDataType>::iterator", ptr %3, i32 0, i32 1
  %7 = load i64, ptr %6, align 8
  %8 = sub i64 %7, 1
  %9 = call noundef ptr @_ZN12cmLinkedTreeIN13cmStateDetail16SnapshotDataTypeEE10GetPointerEm(ptr noundef nonnull align 8 dereferenceable(48) %5, i64 noundef %8)
  ret ptr %9
}

; Function Attrs: mustprogress uwtable
define dso_local void @_ZN15cmStateSnapshot11SetListFileERKNSt7__cxx1112basic_stringIcSt11char_traitsIcESaIcEEE(ptr noundef nonnull align 8 dereferenceable(24) %0, ptr noundef nonnull align 8 dereferenceable(32) %1) #4 align 2 {
  %3 = alloca ptr, align 8
  %4 = alloca ptr, align 8
  store ptr %0, ptr %3, align 8
  store ptr %1, ptr %4, align 8
  %5 = load ptr, ptr %3, align 8
  %6 = load ptr, ptr %4, align 8
  %7 = getelementptr inbounds %class.cmStateSnapshot, ptr %5, i32 0, i32 1
  %8 = call noundef ptr @_ZN12cmLinkedTreeIN13cmStateDetail16SnapshotDataTypeEE8iteratorptEv(ptr noundef nonnull align 8 dereferenceable(16) %7)
  %9 = getelementptr inbounds %"struct.cmStateDetail::SnapshotDataType", ptr %8, i32 0, i32 7
  %10 = call noundef nonnull align 8 dereferenceable(32) ptr @_ZN12cmLinkedTreeINSt7__cxx1112basic_stringIcSt11char_traitsIcESaIcEEEE8iteratordeEv(ptr noundef nonnull align 8 dereferenceable(16) %9)
  %11 = call noundef nonnull align 8 dereferenceable(32) ptr @_ZNSt7__cxx1112basic_stringIcSt11char_traitsIcESaIcEEaSERKS4_(ptr noundef nonnull align 8 dereferenceable(32) %10, ptr noundef nonnull align 8 dereferenceable(32) %6)
  ret void
}